; Function Attrs: mustprogress nofree norecurse nosync nounwind willreturn memory(read, inaccessiblemem: none) uwtable
define hidden noundef zeroext i1 @_ZNK3nla4core15has_upper_boundEj(ptr noundef nonnull readonly align 8 captures(none) dereferenceable(4736) %0, i32 noundef %1) local_unnamed_addr #9 align 2 {
  %3 = getelementptr inbounds nuw i8, ptr %0, i64 192
  %4 = load ptr, ptr %3, align 8, !tbaa !195
  %5 = getelementptr inbounds nuw i8, ptr %4, i64 1096
  %6 = load ptr, ptr %5, align 8, !tbaa !404
  %7 = load ptr, ptr %6, align 8, !tbaa !405
  %8 = zext i32 %1 to i64
  %9 = getelementptr inbounds nuw i32, ptr %7, i64 %8
  %10 = load i32, ptr %9, align 4, !tbaa !407
  %switch.i.i = icmp ugt i32 %10, 1
  ret i1 %switch.i.i
}